ccopy_reg
_reconstructor
p0
(ckeras.preprocessing.text
Tokenizer
p1
c__builtin__
object
p2
Ntp3
Rp4
(dp5
S'lower'
p6
I01
sS'word_index'
p7
(dp8
S'gu'
p9
I37
sS'r-1'
p10
I8
sS'co'
p11
I30
sS'af'
p12
I12
sS'ec'
p13
I18
sS'qoc'
p14
I40
sS'ts-1'
p15
I26
sS'rn1'
p16
I23
sS'n'
p17
I46
sS'rs1'
p18
I43
sS'gi'
p19
I2
sS'adw'
p20
I25
sS'01'
p21
I27
sS'rd1'
p22
I20
sS'adp'
p23
I31
sS'rs'
p24
I44
sS'res'
p25
I4
sS'rcw'
p26
I35
sS'rcp'
p27
I36
sS'fb'
p28
I38
sS'quo'
p29
I5
sS'rec'
p30
I7
sS'rn'
p31
I41
sS'o1'
p32
I9
sS'rd-1'
p33
I22
sS'0-1'
p34
I28
sS'wa'
p35
I33
sS'di'
p36
I34
sS'fa'
p37
I11
sS'o-1'
p38
I13
sS'ra1'
p39
I17
sS'rst'
p40
I47
sS'fi'
p41
I24
sS'c1'
p42
I19
sS'fn'
p43
I1
sS'r1'
p44
I6
sS'f'
p45
I45
sS'ra-1'
p46
I21
sS'su'
p47
I14
sS'st'
p48
I10
sS'oq'
p49
I42
sS'unknown'
p50
I15
sS'quc'
p51
I3
sS'fnn'
p52
I39
sS'rn-1'
p53
I32
sS'c-1'
p54
I29
sS'ts1'
p55
I16
ssS'char_level'
p56
I00
sS'word_counts'
p57
ccollections
OrderedDict
p58
((lp59
(lp60
g50
aI1828
aa(lp61
g19
aI29260
aa(lp62
g43
aI52545
aa(lp63
g37
aI7114
aa(lp64
g51
aI25985
aa(lp65
g47
aI2540
aa(lp66
g25
aI17591
aa(lp67
g48
aI7378
aa(lp68
g29
aI16288
aa(lp69
g38
aI2806
aa(lp70
g32
aI10784
aa(lp71
g30
aI11318
aa(lp72
g55
aI1687
aa(lp73
g39
aI1626
aa(lp74
g44
aI15335
aa(lp75
g12
aI4417
aa(lp76
g15
aI175
aa(lp77
g10
aI11061
aa(lp78
g13
aI1227
aa(lp79
g34
aI127
aa(lp80
g33
aI284
aa(lp81
g22
aI581
aa(lp82
g42
aI933
aa(lp83
g16
aI242
aa(lp84
g54
aI125
aa(lp85
g46
aI556
aa(lp86
g36
aI68
aa(lp87
g20
aI177
aa(lp88
g41
aI194
aa(lp89
g53
aI78
aa(lp90
g11
aI113
aa(lp91
g26
aI26
aa(lp92
g35
aI77
aa(lp93
g27
aI21
aa(lp94
g24
aI2
aa(lp95
g23
aI87
aa(lp96
g21
aI149
aa(lp97
g45
aI2
aa(lp98
g17
aI2
aa(lp99
g49
aI3
aa(lp100
g28
aI4
aa(lp101
g40
aI1
aa(lp102
g9
aI6
aa(lp103
g52
aI4
aa(lp104
g14
aI4
aa(lp105
g31
aI4
aa(lp106
g18
aI3
aatp107
Rp108
sS'split'
p109
S' '
p110
sS'filters'
p111
S''
p112
sS'word_docs'
p113
(dp114
g9
I6
sg10
I6391
sg11
I95
sg12
I3538
sg13
I1118
sg46
I437
sg14
I4
sg15
I146
sg16
I188
sg17
I2
sg18
I3
sg19
I15141
sg20
I172
sg21
I115
sg22
I458
sg23
I67
sg24
I2
sg50
I322
sg26
I26
sg27
I17
sg28
I4
sg43
I19785
sg30
I8133
sg31
I4
sg32
I6549
sg33
I252
sg34
I93
sg35
I70
sg36
I53
sg37
I5499
sg38
I2043
sg39
I1160
sg40
I1
sg41
I172
sg42
I718
sg29
I12539
sg44
I7412
sg45
I2
sg51
I15374
sg47
I2152
sg48
I6241
sg49
I3
sg25
I12002
sg52
I4
sg53
I64
sg54
I118
sg55
I1259
ssS'index_docs'
p115
(dp116
I1
I19785
sI2
I15141
sI3
I15374
sI4
I12002
sI5
I12539
sI6
I7412
sI7
I8133
sI8
I6391
sI9
I6549
sI10
I6241
sI11
I5499
sI12
I3538
sI13
I2043
sI14
I2152
sI15
I322
sI16
I1259
sI17
I1160
sI18
I1118
sI19
I718
sI20
I458
sI21
I437
sI22
I252
sI23
I188
sI24
I172
sI25
I172
sI26
I146
sI27
I115
sI28
I93
sI29
I118
sI30
I95
sI31
I67
sI32
I64
sI33
I70
sI34
I53
sI35
I26
sI36
I17
sI37
I6
sI38
I4
sI39
I4
sI40
I4
sI41
I4
sI42
I3
sI43
I3
sI44
I2
sI45
I2
sI46
I2
sI47
I1
ssS'document_count'
p117
I22484
sS'num_words'
p118
I10000
sb.